; Function Attrs: nounwind uwtable
define internal ptr @list_get_item(ptr readnone captures(none) %0, ptr noundef %1) #0 {
  %3 = alloca ptr, align 8
  %4 = alloca i64, align 8
  call void @llvm.lifetime.start.p0(i64 8, ptr nonnull %3) #5
  call void @llvm.lifetime.start.p0(i64 8, ptr nonnull %4) #5
  %5 = call i32 (ptr, ptr, ...) @PyArg_ParseTuple(ptr noundef %1, ptr noundef nonnull @.str.15, ptr noundef nonnull %3, ptr noundef nonnull %4) #5
  %.not = icmp eq i32 %5, 0
  br i1 %.not, label %_Py_XNewRef.exit, label %6

6:                                                ; preds = %2
  %7 = load ptr, ptr %3, align 8, !tbaa !21
  %8 = icmp ne ptr %7, @_Py_NoneStruct
  call void @llvm.assume(i1 %8)
  %9 = getelementptr i8, ptr %7, i64 8
  %.val = load ptr, ptr %9, align 8, !tbaa !3
  %10 = getelementptr i8, ptr %.val, i64 168
  %.val3 = load i64, ptr %10, align 8, !tbaa !9
  %11 = and i64 %.val3, 33554432
  %.not2 = icmp eq i64 %11, 0
  br i1 %.not2, label %12, label %13

12:                                               ; preds = %6
  call void @__assert_fail(ptr noundef nonnull @.str.16, ptr noundef nonnull @.str.8, i32 noundef 22, ptr noundef nonnull @__PRETTY_FUNCTION__.list_get_item) #6
  unreachable

13:                                               ; preds = %6
  %14 = getelementptr inbounds nuw i8, ptr %7, i64 24
  %15 = load ptr, ptr %14, align 8, !tbaa !22
  %16 = load i64, ptr %4, align 8, !tbaa !25
  %17 = getelementptr ptr, ptr %15, i64 %16
  %18 = load ptr, ptr %17, align 8, !tbaa !21
  %.not.i.i = icmp eq ptr %18, null
  br i1 %.not.i.i, label %_Py_XNewRef.exit, label %19

19:                                               ; preds = %13
  %20 = load i32, ptr %18, align 8, !tbaa !26
  %21 = icmp slt i32 %20, 0
  br i1 %21, label %_Py_XNewRef.exit, label %22

22:                                               ; preds = %19
  %23 = add nuw i32 %20, 1
  store i32 %23, ptr %18, align 8, !tbaa !26
  br label %_Py_XNewRef.exit

_Py_XNewRef.exit:                                 ; preds = %22, %19, %13, %2
  %.0 = phi ptr [ null, %2 ], [ null, %13 ], [ %18, %19 ], [ %18, %22 ]
  call void @llvm.lifetime.end.p0(i64 8, ptr nonnull %4) #5
  call void @llvm.lifetime.end.p0(i64 8, ptr nonnull %3) #5
  ret ptr %.0
}